target datalayout = "e-m:e-p270:32:32-p271:32:32-p272:64:64-i64:64-i128:128-f80:128-n8:16:32:64-S128"
target triple = "x86_64-pc-linux-gnu"

%"class.icu_77::MaybeStackArray" = type <{ ptr, i32, i8, [40 x i8], [3 x i8] }>
%"class.icu_77::CharString" = type { %"class.icu_77::MaybeStackArray", i32, [4 x i8] }

; Function Attrs: mustprogress nounwind uwtable
define weak_odr noundef ptr @_ZNK6icu_7715MaybeStackArrayIcLi40EE8getAliasEv(ptr noundef nonnull align 8 dereferenceable(53) %0) #0 comdat align 2 {
  %2 = alloca ptr, align 8
  store ptr %0, ptr %2, align 8, !tbaa !3
  %3 = load ptr, ptr %2, align 8
  %4 = getelementptr inbounds nuw %"class.icu_77::MaybeStackArray", ptr %3, i32 0, i32 0
  %5 = load ptr, ptr %4, align 8, !tbaa !8
  ret ptr %5
}

; Function Attrs: inlinehint mustprogress nounwind uwtable
define internal noundef signext i8 @_ZL9U_FAILURE10UErrorCode(i32 noundef %0) #2 {
  %2 = alloca i32, align 4
  store i32 %0, ptr %2, align 4, !tbaa !15
  %3 = load i32, ptr %2, align 4, !tbaa !15
  %4 = icmp sgt i32 %3, 0
  %5 = zext i1 %4 to i8
  ret i8 %5
}

; Function Attrs: mustprogress uwtable
define noundef i32 @_ZNK6icu_7710CharString7extractEPciR10UErrorCode(ptr noundef nonnull align 8 dereferenceable(60) %0, ptr noundef %1, i32 noundef %2, ptr noundef nonnull align 4 dereferenceable(4) %3) #1 align 2 {
  %5 = alloca i32, align 4
  %6 = alloca ptr, align 8
  %7 = alloca ptr, align 8
  %8 = alloca i32, align 4
  %9 = alloca ptr, align 8
  %10 = alloca ptr, align 8
  store ptr %0, ptr %6, align 8, !tbaa !23
  store ptr %1, ptr %7, align 8, !tbaa !17
  store i32 %2, ptr %8, align 4, !tbaa !14
  store ptr %3, ptr %9, align 8, !tbaa !22
  %11 = load ptr, ptr %6, align 8
  %12 = load ptr, ptr %9, align 8, !tbaa !22
  %13 = load i32, ptr %12, align 4, !tbaa !15
  %14 = call noundef signext i8 @_ZL9U_FAILURE10UErrorCode(i32 noundef %13)
  %15 = icmp ne i8 %14, 0
  br i1 %15, label %16, label %19

16:                                               ; preds = %4
  %17 = getelementptr inbounds nuw %"class.icu_77::CharString", ptr %11, i32 0, i32 1
  %18 = load i32, ptr %17, align 8, !tbaa !25
  store i32 %18, ptr %5, align 4
  br label %63

19:                                               ; preds = %4
  %20 = load i32, ptr %8, align 4, !tbaa !14
  %21 = icmp slt i32 %20, 0
  br i1 %21, label %28, label %22

22:                                               ; preds = %19
  %23 = load i32, ptr %8, align 4, !tbaa !14
  %24 = icmp sgt i32 %23, 0
  br i1 %24, label %25, label %32

25:                                               ; preds = %22
  %26 = load ptr, ptr %7, align 8, !tbaa !17
  %27 = icmp eq ptr %26, null
  br i1 %27, label %28, label %32

28:                                               ; preds = %25, %19
  %29 = load ptr, ptr %9, align 8, !tbaa !22
  store i32 1, ptr %29, align 4, !tbaa !15
  %30 = getelementptr inbounds nuw %"class.icu_77::CharString", ptr %11, i32 0, i32 1
  %31 = load i32, ptr %30, align 8, !tbaa !25
  store i32 %31, ptr %5, align 4
  br label %63

32:                                               ; preds = %25, %22
  call void @llvm.lifetime.start.p0(i64 8, ptr %10) #11
  %33 = getelementptr inbounds nuw %"class.icu_77::CharString", ptr %11, i32 0, i32 0
  %34 = call noundef ptr @_ZNK6icu_7715MaybeStackArrayIcLi40EE8getAliasEv(ptr noundef nonnull align 8 dereferenceable(53) %33)
  store ptr %34, ptr %10, align 8, !tbaa !17
  %35 = getelementptr inbounds nuw %"class.icu_77::CharString", ptr %11, i32 0, i32 1
  %36 = load i32, ptr %35, align 8, !tbaa !25
  %37 = icmp slt i32 0, %36
  br i1 %37, label %38, label %56

38:                                               ; preds = %32
  %39 = getelementptr inbounds nuw %"class.icu_77::CharString", ptr %11, i32 0, i32 1
  %40 = load i32, ptr %39, align 8, !tbaa !25
  %41 = load i32, ptr %8, align 4, !tbaa !14
  %42 = icmp sle i32 %40, %41
  br i1 %42, label %43, label %56

43:                                               ; preds = %38
  %44 = load ptr, ptr %10, align 8, !tbaa !17
  %45 = load ptr, ptr %7, align 8, !tbaa !17
  %46 = icmp ne ptr %44, %45
  br i1 %46, label %47, label %56

47:                                               ; preds = %43
  br label %48

48:                                               ; preds = %47
  %49 = load ptr, ptr %7, align 8, !tbaa !17
  %50 = load ptr, ptr %10, align 8, !tbaa !17
  %51 = getelementptr inbounds nuw %"class.icu_77::CharString", ptr %11, i32 0, i32 1
  %52 = load i32, ptr %51, align 8, !tbaa !25
  %53 = sext i32 %52 to i64
  call void @llvm.memcpy.p0.p0.i64(ptr align 1 %49, ptr align 1 %50, i64 %53, i1 false)
  br label %54

54:                                               ; preds = %48
  br label %55

55:                                               ; preds = %54
  br label %56

56:                                               ; preds = %55, %43, %38, %32
  %57 = load ptr, ptr %7, align 8, !tbaa !17
  %58 = load i32, ptr %8, align 4, !tbaa !14
  %59 = getelementptr inbounds nuw %"class.icu_77::CharString", ptr %11, i32 0, i32 1
  %60 = load i32, ptr %59, align 8, !tbaa !25
  %61 = load ptr, ptr %9, align 8, !tbaa !22
  %62 = call i32 @u_terminateChars_77(ptr noundef %57, i32 noundef %58, i32 noundef %60, ptr noundef %61)
  store i32 %62, ptr %5, align 4
  call void @llvm.lifetime.end.p0(i64 8, ptr %10) #11
  br label %63

63:                                               ; preds = %56, %28, %16
  %64 = load i32, ptr %5, align 4
  ret i32 %64
}