; Function Attrs: mustprogress uwtable
define noundef i32 @_ZNK6icu_7710CharString7extractEPciR10UErrorCode(ptr noundef nonnull readonly align 8 captures(none) dereferenceable(60) %0, ptr noundef %1, i32 noundef %2, ptr noundef nonnull align 4 dereferenceable(4) %3) local_unnamed_addr #1 align 2 {
  %5 = load i32, ptr %3, align 4, !tbaa !13
  %6 = icmp slt i32 %5, 1
  br i1 %6, label %10, label %7

7:                                                ; preds = %4
  %8 = getelementptr inbounds nuw i8, ptr %0, i64 56
  %9 = load i32, ptr %8, align 8, !tbaa !15
  br label %28

10:                                               ; preds = %4
  %11 = icmp slt i32 %2, 0
  br i1 %11, label %15, label %12

12:                                               ; preds = %10
  %13 = icmp ne i32 %2, 0
  %14 = icmp eq ptr %1, null
  %or.cond = and i1 %14, %13
  br i1 %or.cond, label %15, label %18

15:                                               ; preds = %12, %10
  store i32 1, ptr %3, align 4, !tbaa !13
  %16 = getelementptr inbounds nuw i8, ptr %0, i64 56
  %17 = load i32, ptr %16, align 8, !tbaa !15
  br label %28

18:                                               ; preds = %12
  %19 = load ptr, ptr %0, align 8, !tbaa !3
  %20 = getelementptr inbounds nuw i8, ptr %0, i64 56
  %21 = load i32, ptr %20, align 8, !tbaa !15
  %22 = icmp slt i32 %21, 1
  %.not19 = icmp sgt i32 %21, %2
  %or.cond21 = or i1 %22, %.not19
  %.not20 = icmp eq ptr %19, %1
  %or.cond22 = or i1 %.not20, %or.cond21
  br i1 %or.cond22, label %25, label %23

23:                                               ; preds = %18
  %24 = zext nneg i32 %21 to i64
  tail call void @llvm.memcpy.p0.p0.i64(ptr align 1 %1, ptr align 1 %19, i64 %24, i1 false)
  %.pre = load i32, ptr %20, align 8, !tbaa !15
  br label %25

25:                                               ; preds = %23, %18
  %26 = phi i32 [ %.pre, %23 ], [ %21, %18 ]
  %27 = tail call i32 @u_terminateChars_77(ptr noundef %1, i32 noundef %2, i32 noundef %26, ptr noundef nonnull %3)
  br label %28

28:                                               ; preds = %25, %15, %7
  %.0 = phi i32 [ %9, %7 ], [ %17, %15 ], [ %27, %25 ]
  ret i32 %.0
}